target datalayout = "e-m:e-p270:32:32-p271:32:32-p272:64:64-i64:64-i128:128-f80:128-n8:16:32:64-S128"
target triple = "x86_64-pc-linux-gnu"

%struct.UDataSwapper = type { i8, i8, i8, i8, ptr, ptr, ptr, ptr, ptr, ptr, ptr, ptr, ptr, ptr, ptr }
%struct.DataHeader = type { %struct.MappedData, %struct.UDataInfo }
%struct.MappedData = type { i16, i8, i8 }
%struct.UDataInfo = type { i16, i16, i8, i8, i8, i8, [4 x i8], [4 x i8], [4 x i8] }

@.str = private unnamed_addr constant [65 x i8] c"udata_swapDataHeader(): initial bytes do not look like ICU data\0A\00", align 1
@.str.1 = private unnamed_addr constant [84 x i8] c"udata_swapDataHeader(): header size mismatch - headerSize %d infoSize %d length %d\0A\00", align 1

; Function Attrs: inlinehint mustprogress nounwind uwtable
define internal noundef signext i8 @_ZL9U_FAILURE10UErrorCode(i32 noundef %0) #2 {
  %2 = alloca i32, align 4
  store i32 %0, ptr %2, align 4, !tbaa !16
  %3 = load i32, ptr %2, align 4, !tbaa !16
  %4 = icmp sgt i32 %3, 0
  %5 = zext i1 %4 to i8
  ret i8 %5
}

; Function Attrs: mustprogress uwtable
define i32 @udata_swapDataHeader_77(ptr noundef %0, ptr noundef %1, i32 noundef %2, ptr noundef %3, ptr noundef %4) #0 {
  %6 = alloca i32, align 4
  %7 = alloca ptr, align 8
  %8 = alloca ptr, align 8
  %9 = alloca i32, align 4
  %10 = alloca ptr, align 8
  %11 = alloca ptr, align 8
  %12 = alloca ptr, align 8
  %13 = alloca i16, align 2
  %14 = alloca i16, align 2
  %15 = alloca i32, align 4
  %16 = alloca ptr, align 8
  %17 = alloca ptr, align 8
  %18 = alloca i32, align 4
  store ptr %0, ptr %7, align 8, !tbaa !3
  store ptr %1, ptr %8, align 8, !tbaa !15
  store i32 %2, ptr %9, align 4, !tbaa !12
  store ptr %3, ptr %10, align 8, !tbaa !15
  store ptr %4, ptr %11, align 8, !tbaa !15
  call void @llvm.lifetime.start.p0(i64 8, ptr %12) #9
  call void @llvm.lifetime.start.p0(i64 2, ptr %13) #9
  call void @llvm.lifetime.start.p0(i64 2, ptr %14) #9
  %19 = load ptr, ptr %11, align 8, !tbaa !15
  %20 = icmp eq ptr %19, null
  br i1 %20, label %26, label %21

21:                                               ; preds = %5
  %22 = load ptr, ptr %11, align 8, !tbaa !15
  %23 = load i32, ptr %22, align 4, !tbaa !16
  %24 = call noundef signext i8 @_ZL9U_FAILURE10UErrorCode(i32 noundef %23)
  %25 = icmp ne i8 %24, 0
  br i1 %25, label %26, label %27

26:                                               ; preds = %21, %5
  store i32 0, ptr %6, align 4
  store i32 1, ptr %15, align 4
  br label %224

27:                                               ; preds = %21
  %28 = load ptr, ptr %7, align 8, !tbaa !3
  %29 = icmp eq ptr %28, null
  br i1 %29, label %42, label %30

30:                                               ; preds = %27
  %31 = load ptr, ptr %8, align 8, !tbaa !15
  %32 = icmp eq ptr %31, null
  br i1 %32, label %42, label %33

33:                                               ; preds = %30
  %34 = load i32, ptr %9, align 4, !tbaa !12
  %35 = icmp slt i32 %34, -1
  br i1 %35, label %42, label %36

36:                                               ; preds = %33
  %37 = load i32, ptr %9, align 4, !tbaa !12
  %38 = icmp sgt i32 %37, 0
  br i1 %38, label %39, label %44

39:                                               ; preds = %36
  %40 = load ptr, ptr %10, align 8, !tbaa !15
  %41 = icmp eq ptr %40, null
  br i1 %41, label %42, label %44

42:                                               ; preds = %39, %33, %30, %27
  %43 = load ptr, ptr %11, align 8, !tbaa !15
  store i32 1, ptr %43, align 4, !tbaa !16
  store i32 0, ptr %6, align 4
  store i32 1, ptr %15, align 4
  br label %224

44:                                               ; preds = %39, %36
  %45 = load ptr, ptr %8, align 8, !tbaa !15
  store ptr %45, ptr %12, align 8, !tbaa !15
  %46 = load i32, ptr %9, align 4, !tbaa !12
  %47 = icmp sge i32 %46, 0
  br i1 %47, label %48, label %51

48:                                               ; preds = %44
  %49 = load i32, ptr %9, align 4, !tbaa !12
  %50 = icmp slt i32 %49, 24
  br i1 %50, label %72, label %51

51:                                               ; preds = %48, %44
  %52 = load ptr, ptr %12, align 8, !tbaa !15
  %53 = getelementptr inbounds nuw %struct.DataHeader, ptr %52, i32 0, i32 0
  %54 = getelementptr inbounds nuw %struct.MappedData, ptr %53, i32 0, i32 1
  %55 = load i8, ptr %54, align 2, !tbaa !26
  %56 = zext i8 %55 to i32
  %57 = icmp ne i32 %56, 218
  br i1 %57, label %72, label %58

58:                                               ; preds = %51
  %59 = load ptr, ptr %12, align 8, !tbaa !15
  %60 = getelementptr inbounds nuw %struct.DataHeader, ptr %59, i32 0, i32 0
  %61 = getelementptr inbounds nuw %struct.MappedData, ptr %60, i32 0, i32 2
  %62 = load i8, ptr %61, align 1, !tbaa !30
  %63 = zext i8 %62 to i32
  %64 = icmp ne i32 %63, 39
  br i1 %64, label %72, label %65

65:                                               ; preds = %58
  %66 = load ptr, ptr %12, align 8, !tbaa !15
  %67 = getelementptr inbounds nuw %struct.DataHeader, ptr %66, i32 0, i32 1
  %68 = getelementptr inbounds nuw %struct.UDataInfo, ptr %67, i32 0, i32 4
  %69 = load i8, ptr %68, align 2, !tbaa !31
  %70 = zext i8 %69 to i32
  %71 = icmp ne i32 %70, 2
  br i1 %71, label %72, label %75

72:                                               ; preds = %65, %58, %51, %48
  %73 = load ptr, ptr %7, align 8, !tbaa !3
  call void (ptr, ptr, ...) @udata_printError_77(ptr noundef %73, ptr noundef @.str)
  %74 = load ptr, ptr %11, align 8, !tbaa !15
  store i32 16, ptr %74, align 4, !tbaa !16
  store i32 0, ptr %6, align 4
  store i32 1, ptr %15, align 4
  br label %224

75:                                               ; preds = %65
  %76 = load ptr, ptr %7, align 8, !tbaa !3
  %77 = getelementptr inbounds nuw %struct.UDataSwapper, ptr %76, i32 0, i32 4
  %78 = load ptr, ptr %77, align 8, !tbaa !10
  %79 = load ptr, ptr %12, align 8, !tbaa !15
  %80 = getelementptr inbounds nuw %struct.DataHeader, ptr %79, i32 0, i32 0
  %81 = getelementptr inbounds nuw %struct.MappedData, ptr %80, i32 0, i32 0
  %82 = load i16, ptr %81, align 2, !tbaa !32
  %83 = call noundef zeroext i16 %78(i16 noundef zeroext %82)
  store i16 %83, ptr %13, align 2, !tbaa !8
  %84 = load ptr, ptr %7, align 8, !tbaa !3
  %85 = getelementptr inbounds nuw %struct.UDataSwapper, ptr %84, i32 0, i32 4
  %86 = load ptr, ptr %85, align 8, !tbaa !10
  %87 = load ptr, ptr %12, align 8, !tbaa !15
  %88 = getelementptr inbounds nuw %struct.DataHeader, ptr %87, i32 0, i32 1
  %89 = getelementptr inbounds nuw %struct.UDataInfo, ptr %88, i32 0, i32 0
  %90 = load i16, ptr %89, align 2, !tbaa !33
  %91 = call noundef zeroext i16 %86(i16 noundef zeroext %90)
  store i16 %91, ptr %14, align 2, !tbaa !8
  %92 = load i16, ptr %13, align 2, !tbaa !8
  %93 = zext i16 %92 to i64
  %94 = icmp ult i64 %93, 24
  br i1 %94, label %114, label %95

95:                                               ; preds = %75
  %96 = load i16, ptr %14, align 2, !tbaa !8
  %97 = zext i16 %96 to i64
  %98 = icmp ult i64 %97, 20
  br i1 %98, label %114, label %99

99:                                               ; preds = %95
  %100 = load i16, ptr %13, align 2, !tbaa !8
  %101 = zext i16 %100 to i64
  %102 = load i16, ptr %14, align 2, !tbaa !8
  %103 = zext i16 %102 to i64
  %104 = add i64 4, %103
  %105 = icmp ult i64 %101, %104
  br i1 %105, label %114, label %106

106:                                              ; preds = %99
  %107 = load i32, ptr %9, align 4, !tbaa !12
  %108 = icmp sge i32 %107, 0
  br i1 %108, label %109, label %122

109:                                              ; preds = %106
  %110 = load i32, ptr %9, align 4, !tbaa !12
  %111 = load i16, ptr %13, align 2, !tbaa !8
  %112 = zext i16 %111 to i32
  %113 = icmp slt i32 %110, %112
  br i1 %113, label %114, label %122

114:                                              ; preds = %109, %99, %95, %75
  %115 = load ptr, ptr %7, align 8, !tbaa !3
  %116 = load i16, ptr %13, align 2, !tbaa !8
  %117 = zext i16 %116 to i32
  %118 = load i16, ptr %14, align 2, !tbaa !8
  %119 = zext i16 %118 to i32
  %120 = load i32, ptr %9, align 4, !tbaa !12
  call void (ptr, ptr, ...) @udata_printError_77(ptr noundef %115, ptr noundef @.str.1, i32 noundef %117, i32 noundef %119, i32 noundef %120)
  %121 = load ptr, ptr %11, align 8, !tbaa !15
  store i32 8, ptr %121, align 4, !tbaa !16
  store i32 0, ptr %6, align 4
  store i32 1, ptr %15, align 4
  br label %224

122:                                              ; preds = %109, %106
  %123 = load i32, ptr %9, align 4, !tbaa !12
  %124 = icmp sgt i32 %123, 0
  br i1 %124, label %125, label %221

125:                                              ; preds = %122
  call void @llvm.lifetime.start.p0(i64 8, ptr %16) #9
  call void @llvm.lifetime.start.p0(i64 8, ptr %17) #9
  call void @llvm.lifetime.start.p0(i64 4, ptr %18) #9
  %126 = load ptr, ptr %8, align 8, !tbaa !15
  %127 = load ptr, ptr %10, align 8, !tbaa !15
  %128 = icmp ne ptr %126, %127
  br i1 %128, label %129, label %137

129:                                              ; preds = %125
  br label %130

130:                                              ; preds = %129
  %131 = load ptr, ptr %10, align 8, !tbaa !15
  %132 = load ptr, ptr %8, align 8, !tbaa !15
  %133 = load i16, ptr %13, align 2, !tbaa !8
  %134 = zext i16 %133 to i64
  call void @llvm.memcpy.p0.p0.i64(ptr align 1 %131, ptr align 1 %132, i64 %134, i1 false)
  br label %135

135:                                              ; preds = %130
  br label %136

136:                                              ; preds = %135
  br label %137

137:                                              ; preds = %136, %125
  %138 = load ptr, ptr %10, align 8, !tbaa !15
  store ptr %138, ptr %16, align 8, !tbaa !15
  %139 = load ptr, ptr %7, align 8, !tbaa !3
  %140 = getelementptr inbounds nuw %struct.UDataSwapper, ptr %139, i32 0, i32 2
  %141 = load i8, ptr %140, align 2, !tbaa !34
  %142 = load ptr, ptr %16, align 8, !tbaa !15
  %143 = getelementptr inbounds nuw %struct.DataHeader, ptr %142, i32 0, i32 1
  %144 = getelementptr inbounds nuw %struct.UDataInfo, ptr %143, i32 0, i32 2
  store i8 %141, ptr %144, align 2, !tbaa !35
  %145 = load ptr, ptr %7, align 8, !tbaa !3
  %146 = getelementptr inbounds nuw %struct.UDataSwapper, ptr %145, i32 0, i32 3
  %147 = load i8, ptr %146, align 1, !tbaa !36
  %148 = load ptr, ptr %16, align 8, !tbaa !15
  %149 = getelementptr inbounds nuw %struct.DataHeader, ptr %148, i32 0, i32 1
  %150 = getelementptr inbounds nuw %struct.UDataInfo, ptr %149, i32 0, i32 3
  store i8 %147, ptr %150, align 1, !tbaa !37
  %151 = load ptr, ptr %7, align 8, !tbaa !3
  %152 = getelementptr inbounds nuw %struct.UDataSwapper, ptr %151, i32 0, i32 9
  %153 = load ptr, ptr %152, align 8, !tbaa !38
  %154 = load ptr, ptr %7, align 8, !tbaa !3
  %155 = load ptr, ptr %12, align 8, !tbaa !15
  %156 = getelementptr inbounds nuw %struct.DataHeader, ptr %155, i32 0, i32 0
  %157 = getelementptr inbounds nuw %struct.MappedData, ptr %156, i32 0, i32 0
  %158 = load ptr, ptr %16, align 8, !tbaa !15
  %159 = getelementptr inbounds nuw %struct.DataHeader, ptr %158, i32 0, i32 0
  %160 = getelementptr inbounds nuw %struct.MappedData, ptr %159, i32 0, i32 0
  %161 = load ptr, ptr %11, align 8, !tbaa !15
  %162 = call noundef i32 %153(ptr noundef %154, ptr noundef %157, i32 noundef 2, ptr noundef %160, ptr noundef %161)
  %163 = load ptr, ptr %7, align 8, !tbaa !3
  %164 = getelementptr inbounds nuw %struct.UDataSwapper, ptr %163, i32 0, i32 9
  %165 = load ptr, ptr %164, align 8, !tbaa !38
  %166 = load ptr, ptr %7, align 8, !tbaa !3
  %167 = load ptr, ptr %12, align 8, !tbaa !15
  %168 = getelementptr inbounds nuw %struct.DataHeader, ptr %167, i32 0, i32 1
  %169 = getelementptr inbounds nuw %struct.UDataInfo, ptr %168, i32 0, i32 0
  %170 = load ptr, ptr %16, align 8, !tbaa !15
  %171 = getelementptr inbounds nuw %struct.DataHeader, ptr %170, i32 0, i32 1
  %172 = getelementptr inbounds nuw %struct.UDataInfo, ptr %171, i32 0, i32 0
  %173 = load ptr, ptr %11, align 8, !tbaa !15
  %174 = call noundef i32 %165(ptr noundef %166, ptr noundef %169, i32 noundef 4, ptr noundef %172, ptr noundef %173)
  %175 = load i16, ptr %14, align 2, !tbaa !8
  %176 = zext i16 %175 to i64
  %177 = add i64 %176, 4
  %178 = trunc i64 %177 to i16
  store i16 %178, ptr %14, align 2, !tbaa !8
  %179 = load ptr, ptr %8, align 8, !tbaa !15
  %180 = load i16, ptr %14, align 2, !tbaa !8
  %181 = zext i16 %180 to i32
  %182 = sext i32 %181 to i64
  %183 = getelementptr inbounds i8, ptr %179, i64 %182
  store ptr %183, ptr %17, align 8, !tbaa !18
  %184 = load i16, ptr %13, align 2, !tbaa !8
  %185 = zext i16 %184 to i32
  %186 = load i16, ptr %14, align 2, !tbaa !8
  %187 = zext i16 %186 to i32
  %188 = sub nsw i32 %185, %187
  store i32 %188, ptr %18, align 4, !tbaa !12
  store i32 0, ptr %9, align 4, !tbaa !12
  br label %189

189:                                              ; preds = %204, %137
  %190 = load i32, ptr %9, align 4, !tbaa !12
  %191 = load i32, ptr %18, align 4, !tbaa !12
  %192 = icmp slt i32 %190, %191
  br i1 %192, label %193, label %201

193:                                              ; preds = %189
  %194 = load ptr, ptr %17, align 8, !tbaa !18
  %195 = load i32, ptr %9, align 4, !tbaa !12
  %196 = sext i32 %195 to i64
  %197 = getelementptr inbounds i8, ptr %194, i64 %196
  %198 = load i8, ptr %197, align 1, !tbaa !20
  %199 = sext i8 %198 to i32
  %200 = icmp ne i32 %199, 0
  br label %201

201:                                              ; preds = %193, %189
  %202 = phi i1 [ false, %189 ], [ %200, %193 ]
  br i1 %202, label %203, label %207

203:                                              ; preds = %201
  br label %204

204:                                              ; preds = %203
  %205 = load i32, ptr %9, align 4, !tbaa !12
  %206 = add nsw i32 %205, 1
  store i32 %206, ptr %9, align 4, !tbaa !12
  br label %189, !llvm.loop !39

207:                                              ; preds = %201
  %208 = load ptr, ptr %7, align 8, !tbaa !3
  %209 = getelementptr inbounds nuw %struct.UDataSwapper, ptr %208, i32 0, i32 12
  %210 = load ptr, ptr %209, align 8, !tbaa !23
  %211 = load ptr, ptr %7, align 8, !tbaa !3
  %212 = load ptr, ptr %17, align 8, !tbaa !18
  %213 = load i32, ptr %9, align 4, !tbaa !12
  %214 = load ptr, ptr %10, align 8, !tbaa !15
  %215 = load i16, ptr %14, align 2, !tbaa !8
  %216 = zext i16 %215 to i32
  %217 = sext i32 %216 to i64
  %218 = getelementptr inbounds i8, ptr %214, i64 %217
  %219 = load ptr, ptr %11, align 8, !tbaa !15
  %220 = call noundef i32 %210(ptr noundef %211, ptr noundef %212, i32 noundef %213, ptr noundef %218, ptr noundef %219)
  call void @llvm.lifetime.end.p0(i64 4, ptr %18) #9
  call void @llvm.lifetime.end.p0(i64 8, ptr %17) #9
  call void @llvm.lifetime.end.p0(i64 8, ptr %16) #9
  br label %221

221:                                              ; preds = %207, %122
  %222 = load i16, ptr %13, align 2, !tbaa !8
  %223 = zext i16 %222 to i32
  store i32 %223, ptr %6, align 4
  store i32 1, ptr %15, align 4
  br label %224

224:                                              ; preds = %221, %114, %72, %42, %26
  call void @llvm.lifetime.end.p0(i64 2, ptr %14) #9
  call void @llvm.lifetime.end.p0(i64 2, ptr %13) #9
  call void @llvm.lifetime.end.p0(i64 8, ptr %12) #9
  %225 = load i32, ptr %6, align 4
  ret i32 %225
}