; Function Attrs: mustprogress uwtable
define range(i32 0, 65536) i32 @udata_swapDataHeader_77(ptr noundef %0, ptr noundef %1, i32 noundef %2, ptr noundef %3, ptr noundef %4) local_unnamed_addr #0 {
  %6 = icmp eq ptr %4, null
  br i1 %6, label %78, label %7

7:                                                ; preds = %5
  %8 = load i32, ptr %4, align 4, !tbaa !9
  %9 = icmp slt i32 %8, 1
  br i1 %9, label %10, label %78

10:                                               ; preds = %7
  %11 = icmp eq ptr %0, null
  %12 = icmp eq ptr %1, null
  %or.cond = or i1 %11, %12
  %13 = icmp slt i32 %2, -1
  %or.cond3 = or i1 %or.cond, %13
  br i1 %or.cond3, label %17, label %14

14:                                               ; preds = %10
  %15 = icmp sgt i32 %2, 0
  %16 = icmp eq ptr %3, null
  %or.cond5 = and i1 %15, %16
  br i1 %or.cond5, label %17, label %18

17:                                               ; preds = %14, %10
  store i32 1, ptr %4, align 4, !tbaa !9
  br label %78

18:                                               ; preds = %14
  %or.cond7 = icmp ult i32 %2, 24
  br i1 %or.cond7, label %29, label %19

19:                                               ; preds = %18
  %20 = getelementptr inbounds nuw i8, ptr %1, i64 2
  %21 = load i8, ptr %20, align 2, !tbaa !17
  %.not90 = icmp eq i8 %21, -38
  br i1 %.not90, label %22, label %29

22:                                               ; preds = %19
  %23 = getelementptr inbounds nuw i8, ptr %1, i64 3
  %24 = load i8, ptr %23, align 1, !tbaa !22
  %.not91 = icmp eq i8 %24, 39
  br i1 %.not91, label %25, label %29

25:                                               ; preds = %22
  %26 = getelementptr inbounds nuw i8, ptr %1, i64 4
  %27 = getelementptr inbounds nuw i8, ptr %1, i64 10
  %28 = load i8, ptr %27, align 2, !tbaa !23
  %.not92 = icmp eq i8 %28, 2
  br i1 %.not92, label %30, label %29

29:                                               ; preds = %18, %25, %22, %19
  tail call void (ptr, ptr, ...) @udata_printError_77(ptr noundef nonnull %0, ptr noundef nonnull @.str)
  store i32 16, ptr %4, align 4, !tbaa !9
  br label %78

30:                                               ; preds = %25
  %31 = getelementptr inbounds nuw i8, ptr %0, i64 8
  %32 = load ptr, ptr %31, align 8, !tbaa !3
  %33 = load i16, ptr %1, align 2, !tbaa !24
  %34 = tail call noundef zeroext i16 %32(i16 noundef zeroext %33)
  %35 = load ptr, ptr %31, align 8, !tbaa !3
  %36 = load i16, ptr %26, align 2, !tbaa !25
  %37 = tail call noundef zeroext i16 %35(i16 noundef zeroext %36)
  %38 = zext i16 %34 to i64
  %39 = icmp ult i16 %34, 24
  %40 = icmp ult i16 %37, 20
  %or.cond10 = or i1 %39, %40
  br i1 %or.cond10, label %47, label %41

41:                                               ; preds = %30
  %42 = zext i16 %37 to i64
  %43 = add nuw nsw i64 %42, 4
  %44 = icmp samesign ugt i64 %43, %38
  br i1 %44, label %47, label %45

45:                                               ; preds = %41
  %46 = zext i16 %34 to i32
  %or.cond96 = icmp ult i32 %2, %46
  br i1 %or.cond96, label %47, label %50

47:                                               ; preds = %45, %41, %30
  %48 = zext i16 %34 to i32
  %49 = zext i16 %37 to i32
  tail call void (ptr, ptr, ...) @udata_printError_77(ptr noundef nonnull %0, ptr noundef nonnull @.str.1, i32 noundef %48, i32 noundef %49, i32 noundef %2)
  store i32 8, ptr %4, align 4, !tbaa !9
  br label %78

50:                                               ; preds = %45
  br i1 %15, label %51, label %78

51:                                               ; preds = %50
  %.not93 = icmp eq ptr %1, %3
  br i1 %.not93, label %53, label %52

52:                                               ; preds = %51
  tail call void @llvm.memcpy.p0.p0.i64(ptr align 1 %3, ptr nonnull align 1 %1, i64 %38, i1 false)
  br label %53

53:                                               ; preds = %52, %51
  %54 = getelementptr inbounds nuw i8, ptr %0, i64 2
  %55 = load i8, ptr %54, align 2, !tbaa !26
  %56 = getelementptr inbounds nuw i8, ptr %3, i64 4
  %57 = getelementptr inbounds nuw i8, ptr %3, i64 8
  store i8 %55, ptr %57, align 2, !tbaa !27
  %58 = getelementptr inbounds nuw i8, ptr %0, i64 3
  %59 = load i8, ptr %58, align 1, !tbaa !28
  %60 = getelementptr inbounds nuw i8, ptr %3, i64 9
  store i8 %59, ptr %60, align 1, !tbaa !29
  %61 = getelementptr inbounds nuw i8, ptr %0, i64 48
  %62 = load ptr, ptr %61, align 8, !tbaa !30
  %63 = tail call noundef i32 %62(ptr noundef nonnull %0, ptr noundef nonnull %1, i32 noundef 2, ptr noundef %3, ptr noundef nonnull %4)
  %64 = load ptr, ptr %61, align 8, !tbaa !30
  %65 = tail call noundef i32 %64(ptr noundef nonnull %0, ptr noundef nonnull %26, i32 noundef 4, ptr noundef nonnull %56, ptr noundef nonnull %4)
  %66 = trunc nuw nsw i64 %43 to i32
  %67 = getelementptr inbounds nuw i8, ptr %1, i64 %43
  %68 = sub nsw i32 %46, %66
  %69 = icmp sgt i32 %68, 0
  br i1 %69, label %.lr.ph.preheader, label %.critedge

.lr.ph.preheader:                                 ; preds = %53
  %wide.trip.count = zext nneg i32 %68 to i64
  br label %.lr.ph

.lr.ph:                                           ; preds = %.lr.ph.preheader, %72
  %indvars.iv = phi i64 [ 0, %.lr.ph.preheader ], [ %indvars.iv.next, %72 ]
  %70 = getelementptr inbounds nuw i8, ptr %67, i64 %indvars.iv
  %71 = load i8, ptr %70, align 1, !tbaa !11
  %.not94 = icmp eq i8 %71, 0
  br i1 %.not94, label %.critedge.loopexit.split.loop.exit101, label %72

72:                                               ; preds = %.lr.ph
  %indvars.iv.next = add nuw nsw i64 %indvars.iv, 1
  %exitcond.not = icmp eq i64 %indvars.iv.next, %wide.trip.count
  br i1 %exitcond.not, label %.critedge, label %.lr.ph, !llvm.loop !31

.critedge.loopexit.split.loop.exit101:            ; preds = %.lr.ph
  %73 = trunc nuw nsw i64 %indvars.iv to i32
  br label %.critedge

.critedge:                                        ; preds = %72, %.critedge.loopexit.split.loop.exit101, %53
  %.081.lcssa = phi i32 [ 0, %53 ], [ %73, %.critedge.loopexit.split.loop.exit101 ], [ %68, %72 ]
  %74 = getelementptr inbounds nuw i8, ptr %0, i64 72
  %75 = load ptr, ptr %74, align 8, !tbaa !14
  %76 = getelementptr inbounds nuw i8, ptr %3, i64 %43
  %77 = tail call noundef i32 %75(ptr noundef nonnull %0, ptr noundef nonnull %67, i32 noundef %.081.lcssa, ptr noundef nonnull %76, ptr noundef nonnull %4)
  br label %78

78:                                               ; preds = %50, %.critedge, %5, %7, %47, %29, %17
  %.0 = phi i32 [ 0, %17 ], [ 0, %29 ], [ 0, %47 ], [ 0, %7 ], [ 0, %5 ], [ %46, %.critedge ], [ %46, %50 ]
  ret i32 %.0
}